target datalayout = "e-m:e-p270:32:32-p271:32:32-p272:64:64-i64:64-i128:128-f80:128-n8:16:32:64-S128"
target triple = "x86_64-pc-linux-gnu"

@.str = private unnamed_addr constant [30 x i8] c"Assertion %s failed at %s:%d\0A\00", align 1
@.str.1 = private unnamed_addr constant [12 x i8] c"size_id < 3\00", align 1
@.str.2 = private unnamed_addr constant [22 x i8] c"libavcodec/vvc/data.c\00", align 1

; Function Attrs: nounwind uwtable
define ptr @ff_vvc_get_mip_matrix(i32 noundef %0, i32 noundef %1) #0 {
  %3 = alloca ptr, align 8
  %4 = alloca i32, align 4
  %5 = alloca i32, align 4
  store i32 %0, ptr %4, align 4, !tbaa !4
  store i32 %1, ptr %5, align 4, !tbaa !4
  br label %6

6:                                                ; preds = %2
  %7 = load i32, ptr %4, align 4, !tbaa !4
  %8 = icmp slt i32 %7, 3
  br i1 %8, label %10, label %9

9:                                                ; preds = %6
  call void (ptr, i32, ptr, ...) @av_log(ptr noundef null, i32 noundef 0, ptr noundef @.str, ptr noundef @.str.1, ptr noundef @.str.2, i32 noundef 1149)
  call void @abort() #3
  unreachable

10:                                               ; preds = %6
  br label %11

11:                                               ; preds = %10
  %12 = load i32, ptr %4, align 4, !tbaa !4
  %13 = icmp eq i32 %12, 0
  br i1 %13, label %14, label %20

14:                                               ; preds = %11
  %15 = load i32, ptr %5, align 4, !tbaa !4
  %16 = sext i32 %15 to i64
  %17 = getelementptr inbounds [16 x [16 x [4 x i8]]], ptr @mip_matrix_4x4, i64 0, i64 %16
  %18 = getelementptr inbounds [16 x [4 x i8]], ptr %17, i64 0, i64 0
  %19 = getelementptr inbounds [4 x i8], ptr %18, i64 0, i64 0
  store ptr %19, ptr %3, align 8
  br label %35

20:                                               ; preds = %11
  %21 = load i32, ptr %4, align 4, !tbaa !4
  %22 = icmp eq i32 %21, 1
  br i1 %22, label %23, label %29

23:                                               ; preds = %20
  %24 = load i32, ptr %5, align 4, !tbaa !4
  %25 = sext i32 %24 to i64
  %26 = getelementptr inbounds [8 x [16 x [8 x i8]]], ptr @mip_matrix_8x8, i64 0, i64 %25
  %27 = getelementptr inbounds [16 x [8 x i8]], ptr %26, i64 0, i64 0
  %28 = getelementptr inbounds [8 x i8], ptr %27, i64 0, i64 0
  store ptr %28, ptr %3, align 8
  br label %35

29:                                               ; preds = %20
  %30 = load i32, ptr %5, align 4, !tbaa !4
  %31 = sext i32 %30 to i64
  %32 = getelementptr inbounds [6 x [64 x [7 x i8]]], ptr @mip_matrix_16x16, i64 0, i64 %31
  %33 = getelementptr inbounds [64 x [7 x i8]], ptr %32, i64 0, i64 0
  %34 = getelementptr inbounds [7 x i8], ptr %33, i64 0, i64 0
  store ptr %34, ptr %3, align 8
  br label %35

35:                                               ; preds = %29, %23, %14
  %36 = load ptr, ptr %3, align 8
  ret ptr %36
}