; Function Attrs: nounwind uwtable
define nonnull ptr @ff_vvc_get_mip_matrix(i32 noundef %0, i32 noundef %1) local_unnamed_addr #0 {
  %3 = icmp slt i32 %0, 3
  br i1 %3, label %5, label %4

4:                                                ; preds = %2
  tail call void (ptr, i32, ptr, ...) @av_log(ptr noundef null, i32 noundef 0, ptr noundef nonnull @.str, ptr noundef nonnull @.str.1, ptr noundef nonnull @.str.2, i32 noundef 1149) #3
  tail call void @abort() #4
  unreachable

5:                                                ; preds = %2
  %6 = sext i32 %1 to i64
  switch i32 %0, label %11 [
    i32 0, label %7
    i32 1, label %9
  ]

7:                                                ; preds = %5
  %8 = getelementptr inbounds [16 x [16 x [4 x i8]]], ptr @mip_matrix_4x4, i64 0, i64 %6
  br label %13

9:                                                ; preds = %5
  %10 = getelementptr inbounds [8 x [16 x [8 x i8]]], ptr @mip_matrix_8x8, i64 0, i64 %6
  br label %13

11:                                               ; preds = %5
  %12 = getelementptr inbounds [6 x [64 x [7 x i8]]], ptr @mip_matrix_16x16, i64 0, i64 %6
  br label %13

13:                                               ; preds = %11, %9, %7
  %.0 = phi ptr [ %8, %7 ], [ %10, %9 ], [ %12, %11 ]
  ret ptr %.0
}